; Function Attrs: nounwind uwtable
define ptr @l_Lean_throwUnknownConstant___at_Lean_Elab_OpenDecl_resolveId___spec__5___rarg(ptr noundef %0, ptr noundef %1, ptr noundef %2, ptr noundef %3, ptr noundef %4, ptr readnone captures(none) %5) local_unnamed_addr #0 {
  %7 = tail call ptr @l_Lean_MessageData_ofConstName(ptr noundef %4, i8 noundef zeroext 0) #6
  %8 = load ptr, ptr @l_Lean_throwUnknownConstant___at_Lean_Elab_OpenDecl_resolveId___spec__5___rarg___closed__2, align 8, !tbaa !4
  tail call void @lean_inc_heartbeat() #6
  %9 = tail call noalias ptr @mi_malloc_small(i64 noundef 24) #6
  %10 = icmp eq ptr %9, null
  br i1 %10, label %11, label %lean_alloc_ctor.exit

11:                                               ; preds = %6
  tail call void @lean_internal_panic_out_of_memory() #7
  unreachable

lean_alloc_ctor.exit:                             ; preds = %6
  %12 = getelementptr inbounds nuw i8, ptr %9, i64 4
  store i32 1, ptr %9, align 4, !tbaa !8
  store i32 117571608, ptr %12, align 4
  %13 = getelementptr inbounds nuw i8, ptr %9, i64 8
  store ptr %8, ptr %13, align 8, !tbaa !4
  %14 = getelementptr inbounds nuw i8, ptr %9, i64 16
  store ptr %7, ptr %14, align 8, !tbaa !4
  %15 = load ptr, ptr @l_Lean_throwUnknownConstant___at_Lean_Elab_OpenDecl_resolveId___spec__5___rarg___closed__4, align 8, !tbaa !4
  tail call void @lean_inc_heartbeat() #6
  %16 = tail call noalias ptr @mi_malloc_small(i64 noundef 24) #6
  %17 = icmp eq ptr %16, null
  br i1 %17, label %18, label %lean_alloc_ctor.exit16

18:                                               ; preds = %lean_alloc_ctor.exit
  tail call void @lean_internal_panic_out_of_memory() #7
  unreachable

lean_alloc_ctor.exit16:                           ; preds = %lean_alloc_ctor.exit
  %19 = getelementptr inbounds nuw i8, ptr %16, i64 4
  store i32 1, ptr %16, align 4, !tbaa !8
  store i32 117571608, ptr %19, align 4
  %20 = getelementptr inbounds nuw i8, ptr %16, i64 8
  store ptr %9, ptr %20, align 8, !tbaa !4
  %21 = getelementptr inbounds nuw i8, ptr %16, i64 16
  store ptr %15, ptr %21, align 8, !tbaa !4
  %22 = load ptr, ptr @l_Lean_unknownIdentifierMessageTag, align 8, !tbaa !4
  tail call void @lean_inc_heartbeat() #6
  %23 = tail call noalias ptr @mi_malloc_small(i64 noundef 24) #6
  %24 = icmp eq ptr %23, null
  br i1 %24, label %25, label %l_Lean_throwUnknownIdentifier___at_Lean_Elab_OpenDecl_resolveId___spec__6___rarg.exit

25:                                               ; preds = %lean_alloc_ctor.exit16
  tail call void @lean_internal_panic_out_of_memory() #7
  unreachable

l_Lean_throwUnknownIdentifier___at_Lean_Elab_OpenDecl_resolveId___spec__6___rarg.exit: ; preds = %lean_alloc_ctor.exit16
  %26 = getelementptr inbounds nuw i8, ptr %23, i64 4
  store i32 1, ptr %23, align 4, !tbaa !8
  store i32 134348824, ptr %26, align 4
  %27 = getelementptr inbounds nuw i8, ptr %23, i64 8
  store ptr %22, ptr %27, align 8, !tbaa !4
  %28 = getelementptr inbounds nuw i8, ptr %23, i64 16
  store ptr %16, ptr %28, align 8, !tbaa !4
  %29 = tail call ptr @l_Lean_throwError___at_Lean_Elab_OpenDecl_resolveId___spec__7___rarg(ptr noundef %0, ptr noundef %1, ptr noundef %2, ptr noundef %3, ptr noundef nonnull %23, ptr readnone poison)
  ret ptr %29
}